; Function Attrs: mustprogress uwtable
define noundef ptr @_ZN5faiss20read_VectorTransformEPKc(ptr noundef %0) local_unnamed_addr #3 personality ptr @__gxx_personality_v0 {
  %2 = alloca %"struct.faiss::FileIOReader", align 8
  call void @llvm.lifetime.start.p0(i64 56, ptr nonnull %2) #27
  call void @_ZN5faiss12FileIOReaderC1EPKc(ptr noundef nonnull align 8 dereferenceable(49) %2, ptr noundef %0)
  %3 = invoke noundef ptr @_ZN5faiss20read_VectorTransformEPNS_8IOReaderE(ptr noundef nonnull %2)
          to label %4 unwind label %5

4:                                                ; preds = %1
  call void @_ZN5faiss12FileIOReaderD1Ev(ptr noundef nonnull align 8 dereferenceable(49) %2) #27
  call void @llvm.lifetime.end.p0(i64 56, ptr nonnull %2) #27
  ret ptr %3

5:                                                ; preds = %1
  %6 = landingpad { ptr, i32 }
          cleanup
  call void @_ZN5faiss12FileIOReaderD1Ev(ptr noundef nonnull align 8 dereferenceable(49) %2) #27
  call void @llvm.lifetime.end.p0(i64 56, ptr nonnull %2) #27
  resume { ptr, i32 } %6
}